; ModuleID = '58/59.c'
source_filename = "58/59.c"
target datalayout = "e-m:e-p270:32:32-p271:32:32-p272:64:64-i64:64-f80:128-n8:16:32:64-S128"
target triple = "x86_64-pc-linux-gnu"

@.str = private unnamed_addr constant [4 x i8] c"%d\0A\00", align 1

; Function Attrs: noinline nounwind uwtable
define dso_local i32 @main() #0 {
  %1 = alloca i32, align 4
  %2 = alloca i8*, align 8
  %3 = alloca i32, align 4
  %4 = alloca i32, align 4
  %5 = alloca i32, align 4
  %6 = alloca i32, align 4
  %7 = alloca i32*, align 8
  store i32 0, i32* %1, align 4
  %8 = call i32 (i8*, ...) @__isoc99_scanf(i8* getelementptr inbounds ([4 x i8], [4 x i8]* @.str, i64 0, i64 0), i32* %6)
  %9 = call noalias i8* @malloc(i64 128) #4
  %10 = bitcast i8* %9 to i32*
  store i32* %10, i32** %7, align 8
  store i32 0, i32* %3, align 4
  br label %11

11:                                               ; preds = %137, %0
  %12 = load i32, i32* %3, align 4
  %13 = load i32, i32* %6, align 4
  %14 = icmp slt i32 %12, %13
  br i1 %14, label %15, label %140

15:                                               ; preds = %11
  %16 = call noalias i8* @malloc(i64 80) #4
  store i8* %16, i8** %2, align 8
  %17 = load i8*, i8** %2, align 8
  %18 = call i32 (i8*, ...) bitcast (i32 (...)* @gets to i32 (i8*, ...)*)(i8* %17)
  %19 = load i8*, i8** %2, align 8
  %20 = call i64 @strlen(i8* %19) #5
  %21 = trunc i64 %20 to i32
  store i32 %21, i32* %5, align 4
  %22 = load i8*, i8** %2, align 8
  %23 = load i8, i8* %22, align 1
  %24 = sext i8 %23 to i32
  %25 = icmp eq i32 %24, 32
  br i1 %25, label %51, label %26

26:                                               ; preds = %15
  %27 = load i8*, i8** %2, align 8
  %28 = load i8, i8* %27, align 1
  %29 = sext i8 %28 to i32
  %30 = icmp sge i32 %29, 65
  br i1 %30, label %31, label %36

31:                                               ; preds = %26
  %32 = load i8*, i8** %2, align 8
  %33 = load i8, i8* %32, align 1
  %34 = sext i8 %33 to i32
  %35 = icmp sle i32 %34, 90
  br i1 %35, label %51, label %36

36:                                               ; preds = %31, %26
  %37 = load i8*, i8** %2, align 8
  %38 = load i8, i8* %37, align 1
  %39 = sext i8 %38 to i32
  %40 = icmp sge i32 %39, 97
  br i1 %40, label %41, label %46

41:                                               ; preds = %36
  %42 = load i8*, i8** %2, align 8
  %43 = load i8, i8* %42, align 1
  %44 = sext i8 %43 to i32
  %45 = icmp sle i32 %44, 122
  br i1 %45, label %51, label %46

46:                                               ; preds = %41, %36
  %47 = load i8*, i8** %2, align 8
  %48 = load i8, i8* %47, align 1
  %49 = sext i8 %48 to i32
  %50 = icmp eq i32 %49, 95
  br i1 %50, label %51, label %131

51:                                               ; preds = %46, %41, %31, %15
  store i32 0, i32* %4, align 4
  br label %52

52:                                               ; preds = %118, %51
  %53 = load i32, i32* %4, align 4
  %54 = load i32, i32* %5, align 4
  %55 = icmp slt i32 %53, %54
  br i1 %55, label %56, label %121

56:                                               ; preds = %52
  %57 = load i8*, i8** %2, align 8
  %58 = load i32, i32* %4, align 4
  %59 = sext i32 %58 to i64
  %60 = getelementptr inbounds i8, i8* %57, i64 %59
  %61 = load i8, i8* %60, align 1
  %62 = sext i8 %61 to i32
  %63 = icmp slt i32 %62, 48
  br i1 %63, label %112, label %64

64:                                               ; preds = %56
  %65 = load i8*, i8** %2, align 8
  %66 = load i32, i32* %4, align 4
  %67 = sext i32 %66 to i64
  %68 = getelementptr inbounds i8, i8* %65, i64 %67
  %69 = load i8, i8* %68, align 1
  %70 = sext i8 %69 to i32
  %71 = icmp sgt i32 %70, 57
  br i1 %71, label %72, label %80

72:                                               ; preds = %64
  %73 = load i8*, i8** %2, align 8
  %74 = load i32, i32* %4, align 4
  %75 = sext i32 %74 to i64
  %76 = getelementptr inbounds i8, i8* %73, i64 %75
  %77 = load i8, i8* %76, align 1
  %78 = sext i8 %77 to i32
  %79 = icmp slt i32 %78, 65
  br i1 %79, label %112, label %80

80:                                               ; preds = %72, %64
  %81 = load i8*, i8** %2, align 8
  %82 = load i32, i32* %4, align 4
  %83 = sext i32 %82 to i64
  %84 = getelementptr inbounds i8, i8* %81, i64 %83
  %85 = load i8, i8* %84, align 1
  %86 = sext i8 %85 to i32
  %87 = icmp sgt i32 %86, 90
  br i1 %87, label %88, label %96

88:                                               ; preds = %80
  %89 = load i8*, i8** %2, align 8
  %90 = load i32, i32* %4, align 4
  %91 = sext i32 %90 to i64
  %92 = getelementptr inbounds i8, i8* %89, i64 %91
  %93 = load i8, i8* %92, align 1
  %94 = sext i8 %93 to i32
  %95 = icmp slt i32 %94, 95
  br i1 %95, label %112, label %96

96:                                               ; preds = %88, %80
  %97 = load i8*, i8** %2, align 8
  %98 = load i32, i32* %4, align 4
  %99 = sext i32 %98 to i64
  %100 = getelementptr inbounds i8, i8* %97, i64 %99
  %101 = load i8, i8* %100, align 1
  %102 = sext i8 %101 to i32
  %103 = icmp eq i32 %102, 96
  br i1 %103, label %112, label %104

104:                                              ; preds = %96
  %105 = load i8*, i8** %2, align 8
  %106 = load i32, i32* %4, align 4
  %107 = sext i32 %106 to i64
  %108 = getelementptr inbounds i8, i8* %105, i64 %107
  %109 = load i8, i8* %108, align 1
  %110 = sext i8 %109 to i32
  %111 = icmp sgt i32 %110, 122
  br i1 %111, label %112, label %117

112:                                              ; preds = %104, %96, %88, %72, %56
  %113 = load i32*, i32** %7, align 8
  %114 = load i32, i32* %3, align 4
  %115 = sext i32 %114 to i64
  %116 = getelementptr inbounds i32, i32* %113, i64 %115
  store i32 0, i32* %116, align 4
  br label %121

117:                                              ; preds = %104
  br label %118

118:                                              ; preds = %117
  %119 = load i32, i32* %4, align 4
  %120 = add nsw i32 %119, 1
  store i32 %120, i32* %4, align 4
  br label %52

121:                                              ; preds = %112, %52
  %122 = load i32, i32* %4, align 4
  %123 = load i32, i32* %5, align 4
  %124 = icmp eq i32 %122, %123
  br i1 %124, label %125, label %130

125:                                              ; preds = %121
  %126 = load i32*, i32** %7, align 8
  %127 = load i32, i32* %3, align 4
  %128 = sext i32 %127 to i64
  %129 = getelementptr inbounds i32, i32* %126, i64 %128
  store i32 1, i32* %129, align 4
  br label %130

130:                                              ; preds = %125, %121
  br label %136

131:                                              ; preds = %46
  %132 = load i32*, i32** %7, align 8
  %133 = load i32, i32* %3, align 4
  %134 = sext i32 %133 to i64
  %135 = getelementptr inbounds i32, i32* %132, i64 %134
  store i32 0, i32* %135, align 4
  br label %136

136:                                              ; preds = %131, %130
  br label %137

137:                                              ; preds = %136
  %138 = load i32, i32* %3, align 4
  %139 = add nsw i32 %138, 1
  store i32 %139, i32* %3, align 4
  br label %11

140:                                              ; preds = %11
  store i32 0, i32* %3, align 4
  br label %141

141:                                              ; preds = %152, %140
  %142 = load i32, i32* %3, align 4
  %143 = load i32, i32* %6, align 4
  %144 = icmp slt i32 %142, %143
  br i1 %144, label %145, label %155

145:                                              ; preds = %141
  %146 = load i32*, i32** %7, align 8
  %147 = load i32, i32* %3, align 4
  %148 = sext i32 %147 to i64
  %149 = getelementptr inbounds i32, i32* %146, i64 %148
  %150 = load i32, i32* %149, align 4
  %151 = call i32 (i8*, ...) @printf(i8* getelementptr inbounds ([4 x i8], [4 x i8]* @.str, i64 0, i64 0), i32 %150)
  br label %152

152:                                              ; preds = %145
  %153 = load i32, i32* %3, align 4
  %154 = add nsw i32 %153, 1
  store i32 %154, i32* %3, align 4
  br label %141

155:                                              ; preds = %141
  %156 = load i32, i32* %1, align 4
  ret i32 %156
}

declare dso_local i32 @__isoc99_scanf(i8*, ...) #1

; Function Attrs: nounwind
declare dso_local noalias i8* @malloc(i64) #2

declare dso_local i32 @gets(...) #1

; Function Attrs: nounwind readonly
declare dso_local i64 @strlen(i8*) #3

declare dso_local i32 @printf(i8*, ...) #1


!llvm.module.flags = !{!0}
!llvm.ident = !{!1}

!0 = !{i32 1, !"wchar_size", i32 4}
!1 = !{!"clang version 10.0.0-4ubuntu1 "}
